; Function Attrs: nounwind uwtable
define range(i32 0, 2) i32 @X509_TRUST_set(ptr noundef writeonly captures(none) %0, i32 noundef %1) local_unnamed_addr #2 {
  %3 = alloca %struct.x509_trust_st, align 8
  call void @llvm.lifetime.start.p0(i64 40, ptr nonnull %3) #6
  %4 = add i32 %1, -1
  %or.cond.i = icmp ult i32 %4, 8
  br i1 %or.cond.i, label %X509_TRUST_get_by_id.exit.thread4, label %5

X509_TRUST_get_by_id.exit.thread4:                ; preds = %2
  call void @llvm.lifetime.end.p0(i64 40, ptr nonnull %3) #6
  br label %13

5:                                                ; preds = %2
  %6 = load ptr, ptr @trtable, align 8, !tbaa !7
  %7 = icmp eq ptr %6, null
  br i1 %7, label %X509_TRUST_get_by_id.exit.thread, label %8

8:                                                ; preds = %5
  store i32 %1, ptr %3, align 8, !tbaa !9
  tail call void @OPENSSL_sk_sort(ptr noundef nonnull %6) #6
  %9 = load ptr, ptr @trtable, align 8, !tbaa !7
  %10 = call i32 @OPENSSL_sk_find(ptr noundef %9, ptr noundef nonnull %3) #6
  %.inv.i = icmp sgt i32 %10, -1
  br i1 %.inv.i, label %X509_TRUST_get_by_id.exit, label %X509_TRUST_get_by_id.exit.thread

X509_TRUST_get_by_id.exit.thread:                 ; preds = %5, %8
  call void @llvm.lifetime.end.p0(i64 40, ptr nonnull %3) #6
  br label %12

X509_TRUST_get_by_id.exit:                        ; preds = %8
  %narrow.i = add nuw i32 %10, 8
  call void @llvm.lifetime.end.p0(i64 40, ptr nonnull %3) #6
  %11 = icmp slt i32 %narrow.i, 0
  br i1 %11, label %12, label %13

12:                                               ; preds = %X509_TRUST_get_by_id.exit.thread, %X509_TRUST_get_by_id.exit
  call void @ERR_new() #6
  call void @ERR_set_debug(ptr noundef nonnull @.str, i32 noundef 119, ptr noundef nonnull @__func__.X509_TRUST_set) #6
  call void (i32, i32, ptr, ...) @ERR_set_error(i32 noundef 11, i32 noundef 123, ptr noundef null) #6
  br label %14

13:                                               ; preds = %X509_TRUST_get_by_id.exit.thread4, %X509_TRUST_get_by_id.exit
  store i32 %1, ptr %0, align 4, !tbaa !50
  br label %14

14:                                               ; preds = %13, %12
  %.0 = phi i32 [ 0, %12 ], [ 1, %13 ]
  ret i32 %.0
}